; Function Attrs: mustprogress nounwind uwtable
define hidden noundef i32 @_ZN11StringDedup5Table12compute_hashEP16typeArrayOopDesc(ptr noundef %0) local_unnamed_addr #0 align 2 {
  %2 = load i8, ptr @UseCompressedClassPointers, align 1
  %3 = trunc i8 %2 to i1
  %4 = select i1 %3, i64 12, i64 16
  %5 = getelementptr inbounds i8, ptr %0, i64 %4
  %6 = load i32, ptr %5, align 4
  %7 = tail call noundef i64 @_ZN11StringDedup6Config9hash_seedEv() #13
  %8 = load i8, ptr @UseCompressedClassPointers, align 1
  %9 = trunc i8 %8 to i1
  %10 = ptrtoint ptr %0 to i64
  %11 = select i1 %9, i64 16, i64 20
  %12 = add nsw i64 %11, %10
  %13 = inttoptr i64 %12 to ptr
  %14 = tail call noundef i32 @_ZN10AltHashing14halfsiphash_32EmPKvi(i64 noundef %7, ptr noundef %13, i32 noundef %6) #13
  ret i32 %14
}